; Function Attrs: mustprogress uwtable
define void @_ZNK6casadi7Vertcat15join_primitivesERN9__gnu_cxx17__normal_iteratorIPKNS_2MXESt6vectorIS3_SaIS3_EEEE(ptr dead_on_unwind noalias writable sret(%"class.casadi::MX") align 8 %0, ptr noundef nonnull align 8 dereferenceable(64) %1, ptr noundef nonnull align 1 %2) unnamed_addr #3 align 2 personality ptr @__gxx_personality_v0 {
  %4 = alloca %"class.std::vector", align 8
  %5 = alloca %"class.std::allocator", align 1
  %6 = alloca %"class.casadi::MX", align 8
  %7 = tail call noundef i64 @_ZNK6casadi6MXNode5n_depEv(ptr noundef nonnull align 8 dereferenceable(64) %1)
  call void @_ZNSt6vectorIN6casadi2MXESaIS1_EEC2EmRKS2_(ptr noundef nonnull align 8 dereferenceable(24) %4, i64 noundef %7, ptr noundef nonnull align 1 dereferenceable(1) %5)
  %8 = getelementptr inbounds i8, ptr %4, i64 8
  %9 = load ptr, ptr %8, align 8
  %10 = load ptr, ptr %4, align 8
  %.not = icmp eq ptr %9, %10
  br i1 %.not, label %._crit_edge, label %.lr.ph

.lr.ph:                                           ; preds = %3
  %11 = getelementptr inbounds i8, ptr %1, i64 32
  %12 = getelementptr inbounds i8, ptr %1, i64 40
  br label %13

13:                                               ; preds = %.lr.ph, %_ZN6casadi2MXaSERKS0_.exit
  %.024 = phi i64 [ 0, %.lr.ph ], [ %32, %_ZN6casadi2MXaSERKS0_.exit ]
  %14 = load ptr, ptr %12, align 8
  %15 = load ptr, ptr %11, align 8
  %16 = ptrtoint ptr %14 to i64
  %17 = ptrtoint ptr %15 to i64
  %18 = sub i64 %16, %17
  %19 = ashr exact i64 %18, 3
  %.not.i.i.i = icmp ugt i64 %19, %.024
  br i1 %.not.i.i.i, label %21, label %20

20:                                               ; preds = %13
  invoke void (ptr, ...) @_ZSt24__throw_out_of_range_fmtPKcz(ptr noundef nonnull @.str.27, i64 noundef %.024, i64 noundef %19) #19
          to label %.noexc unwind label %.loopexit.split-lp

.noexc:                                           ; preds = %20
  unreachable

21:                                               ; preds = %13
  %22 = getelementptr inbounds %"class.casadi::MX", ptr %15, i64 %.024
  %23 = invoke noundef ptr @_ZNK6casadi2MXptEv(ptr noundef nonnull align 8 dereferenceable(8) %22)
          to label %24 unwind label %.loopexit

24:                                               ; preds = %21
  %25 = load ptr, ptr %23, align 8
  %26 = getelementptr inbounds i8, ptr %25, i64 240
  %27 = load ptr, ptr %26, align 8
  invoke void %27(ptr dead_on_unwind nonnull writable sret(%"class.casadi::MX") align 8 %6, ptr noundef nonnull align 8 dereferenceable(64) %23, ptr noundef nonnull align 1 %2)
          to label %28 unwind label %.loopexit

28:                                               ; preds = %24
  %29 = load ptr, ptr %4, align 8
  %30 = getelementptr inbounds %"class.casadi::MX", ptr %29, i64 %.024
  %31 = invoke noundef nonnull align 8 dereferenceable(8) ptr @_ZN6casadi12SharedObjectaSERKS0_(ptr noundef nonnull align 8 dereferenceable(8) %30, ptr noundef nonnull align 8 dereferenceable(8) %6)
          to label %_ZN6casadi2MXaSERKS0_.exit unwind label %40

_ZN6casadi2MXaSERKS0_.exit:                       ; preds = %28
  call void @_ZN6casadi2MXD1Ev(ptr noundef nonnull align 8 dereferenceable(8) %6) #17
  %32 = add nuw nsw i64 %.024, 1
  %33 = load ptr, ptr %8, align 8
  %34 = load ptr, ptr %4, align 8
  %35 = ptrtoint ptr %33 to i64
  %36 = ptrtoint ptr %34 to i64
  %37 = sub i64 %35, %36
  %38 = ashr exact i64 %37, 3
  %39 = icmp ult i64 %32, %38
  br i1 %39, label %13, label %._crit_edge, !llvm.loop !50

.loopexit:                                        ; preds = %21, %24
  %lpad.loopexit = landingpad { ptr, i32 }
          cleanup
  br label %47

.loopexit.split-lp:                               ; preds = %20, %._crit_edge
  %lpad.loopexit.split-lp = landingpad { ptr, i32 }
          cleanup
  br label %47

40:                                               ; preds = %28
  %41 = landingpad { ptr, i32 }
          cleanup
  call void @_ZN6casadi2MXD1Ev(ptr noundef nonnull align 8 dereferenceable(8) %6) #17
  br label %47

._crit_edge:                                      ; preds = %_ZN6casadi2MXaSERKS0_.exit, %3
  invoke void @_ZN6casadi2MX7vertcatERKSt6vectorIS0_SaIS0_EE(ptr dead_on_unwind writable sret(%"class.casadi::MX") align 8 %0, ptr noundef nonnull align 8 dereferenceable(24) %4)
          to label %_ZN6casadi7vertcatERKSt6vectorINS_2MXESaIS1_EE.exit unwind label %.loopexit.split-lp

_ZN6casadi7vertcatERKSt6vectorINS_2MXESaIS1_EE.exit: ; preds = %._crit_edge
  %42 = load ptr, ptr %4, align 8
  %43 = load ptr, ptr %8, align 8
  %.not4.i.i.i.i = icmp eq ptr %42, %43
  br i1 %.not4.i.i.i.i, label %_ZSt8_DestroyIPN6casadi2MXES1_EvT_S3_RSaIT0_E.exit.i, label %.lr.ph.i.i.i.i

.lr.ph.i.i.i.i:                                   ; preds = %_ZN6casadi7vertcatERKSt6vectorINS_2MXESaIS1_EE.exit, %.lr.ph.i.i.i.i
  %.05.i.i.i.i = phi ptr [ %44, %.lr.ph.i.i.i.i ], [ %42, %_ZN6casadi7vertcatERKSt6vectorINS_2MXESaIS1_EE.exit ]
  call void @_ZN6casadi2MXD1Ev(ptr noundef nonnull align 8 dereferenceable(8) %.05.i.i.i.i) #17
  %44 = getelementptr inbounds i8, ptr %.05.i.i.i.i, i64 8
  %.not.i.i.i.i = icmp eq ptr %44, %43
  br i1 %.not.i.i.i.i, label %_ZSt8_DestroyIPN6casadi2MXES1_EvT_S3_RSaIT0_E.exitthread-pre-split.i, label %.lr.ph.i.i.i.i, !llvm.loop !24

_ZSt8_DestroyIPN6casadi2MXES1_EvT_S3_RSaIT0_E.exitthread-pre-split.i: ; preds = %.lr.ph.i.i.i.i
  %.pr.i = load ptr, ptr %4, align 8
  br label %_ZSt8_DestroyIPN6casadi2MXES1_EvT_S3_RSaIT0_E.exit.i

_ZSt8_DestroyIPN6casadi2MXES1_EvT_S3_RSaIT0_E.exit.i: ; preds = %_ZSt8_DestroyIPN6casadi2MXES1_EvT_S3_RSaIT0_E.exitthread-pre-split.i, %_ZN6casadi7vertcatERKSt6vectorINS_2MXESaIS1_EE.exit
  %45 = phi ptr [ %.pr.i, %_ZSt8_DestroyIPN6casadi2MXES1_EvT_S3_RSaIT0_E.exitthread-pre-split.i ], [ %42, %_ZN6casadi7vertcatERKSt6vectorINS_2MXESaIS1_EE.exit ]
  %.not.i.i.i14 = icmp eq ptr %45, null
  br i1 %.not.i.i.i14, label %_ZNSt6vectorIN6casadi2MXESaIS1_EED2Ev.exit, label %46

46:                                               ; preds = %_ZSt8_DestroyIPN6casadi2MXES1_EvT_S3_RSaIT0_E.exit.i
  call void @_ZdlPv(ptr noundef nonnull %45) #21
  br label %_ZNSt6vectorIN6casadi2MXESaIS1_EED2Ev.exit

_ZNSt6vectorIN6casadi2MXESaIS1_EED2Ev.exit:       ; preds = %_ZSt8_DestroyIPN6casadi2MXES1_EvT_S3_RSaIT0_E.exit.i, %46
  ret void

47:                                               ; preds = %.loopexit, %.loopexit.split-lp, %40
  %.pn = phi { ptr, i32 } [ %41, %40 ], [ %lpad.loopexit, %.loopexit ], [ %lpad.loopexit.split-lp, %.loopexit.split-lp ]
  call void @_ZNSt6vectorIN6casadi2MXESaIS1_EED2Ev(ptr noundef nonnull align 8 dereferenceable(24) %4) #17
  resume { ptr, i32 } %.pn
}